; Function Attrs: mustprogress uwtable
define noundef nonnull align 8 dereferenceable(32) ptr @_ZNK6duckdb23ParquetEncryptionConfig12GetFooterKeyB5cxx11Ev(ptr noundef nonnull align 8 dereferenceable(96) %0) local_unnamed_addr #0 align 2 {
  %2 = load ptr, ptr %0, align 8, !tbaa !83
  %3 = tail call noundef nonnull align 8 dereferenceable(64) ptr @_ZN6duckdb11ParquetKeys3GetERNS_13ClientContextE(ptr noundef nonnull align 8 dereferenceable(648) %2)
  %4 = getelementptr inbounds nuw i8, ptr %0, i64 8
  %5 = getelementptr inbounds nuw i8, ptr %3, i64 8
  %6 = tail call ptr @_ZNKSt10_HashtableINSt7__cxx1112basic_stringIcSt11char_traitsIcESaIcEEESt4pairIKS5_S5_ESaIS8_ENSt8__detail10_Select1stESt8equal_toIS5_ESt4hashIS5_ENSA_18_Mod_range_hashingENSA_20_Default_ranged_hashENSA_20_Prime_rehash_policyENSA_17_Hashtable_traitsILb1ELb0ELb1EEEE4findERS7_(ptr noundef nonnull align 8 dereferenceable(56) %5, ptr noundef nonnull align 8 dereferenceable(32) %4)
  %.not.i.i.i = icmp eq ptr %6, null
  br i1 %.not.i.i.i, label %7, label %_ZNK6duckdb11ParquetKeys6GetKeyERKNSt7__cxx1112basic_stringIcSt11char_traitsIcESaIcEEE.exit

7:                                                ; preds = %1
  tail call void @_ZSt20__throw_out_of_rangePKc(ptr noundef nonnull @.str.16) #31
  unreachable

_ZNK6duckdb11ParquetKeys6GetKeyERKNSt7__cxx1112basic_stringIcSt11char_traitsIcESaIcEEE.exit: ; preds = %1
  %8 = getelementptr inbounds nuw i8, ptr %6, i64 40
  ret ptr %8
}